; Function Attrs: mustprogress uwtable
define internal noundef zeroext i1 @"_ZNSt17_Function_handlerIFvvEZN2tf8Executor5asyncIZ4mainE3$_1EEDaRKNSt7__cxx1112basic_stringIcSt11char_traitsIcESaIcEEEOT_EUlvE_E10_M_managerERSt9_Any_dataRKSH_St18_Manager_operation"(ptr nocapture noundef nonnull align 8 dereferenceable(16) %__dest, ptr nocapture noundef nonnull readonly align 8 dereferenceable(16) %__source, i32 noundef %__op) #6 align 2 personality ptr @__gxx_personality_v0 {
entry:
  switch i32 %__op, label %sw.epilog [
    i32 0, label %sw.bb
    i32 1, label %sw.bb1
    i32 3, label %sw.bb6.i
    i32 2, label %sw.bb4.i
  ]

sw.bb:                                            ; preds = %entry
  store ptr @"_ZTIZN2tf8Executor5asyncIZ4mainE3$_1EEDaRKNSt7__cxx1112basic_stringIcSt11char_traitsIcESaIcEEEOT_EUlvE_", ptr %__dest, align 8
  br label %sw.epilog

sw.bb1:                                           ; preds = %entry
  %__source.val = load ptr, ptr %__source, align 8
  store ptr %__source.val, ptr %__dest, align 8
  br label %sw.epilog

sw.bb4.i:                                         ; preds = %entry
  %__source.val5 = load ptr, ptr %__source, align 8
  %call.i.i.i = tail call noalias noundef nonnull dereferenceable(16) ptr @_Znwm(i64 noundef 16) #34
  %0 = load ptr, ptr %__source.val5, align 8
  store ptr %0, ptr %call.i.i.i, align 8
  store ptr null, ptr %__source.val5, align 8
  %_M_refcount.i.i.i.i.i.i.i.i = getelementptr inbounds i8, ptr %call.i.i.i, i64 8
  %_M_refcount3.i.i.i.i.i.i.i.i = getelementptr inbounds i8, ptr %__source.val5, i64 8
  %1 = load ptr, ptr %_M_refcount3.i.i.i.i.i.i.i.i, align 8
  store ptr null, ptr %_M_refcount3.i.i.i.i.i.i.i.i, align 8
  store ptr %1, ptr %_M_refcount.i.i.i.i.i.i.i.i, align 8
  store ptr %call.i.i.i, ptr %__dest, align 8
  br label %sw.epilog

sw.bb6.i:                                         ; preds = %entry
  %__dest.val.i = load ptr, ptr %__dest, align 8
  %isnull.i.i = icmp eq ptr %__dest.val.i, null
  br i1 %isnull.i.i, label %sw.epilog, label %delete.notnull.i.i

delete.notnull.i.i:                               ; preds = %sw.bb6.i
  tail call void @_ZNSt13packaged_taskIFivEED2Ev(ptr noundef nonnull align 8 dereferenceable(16) %__dest.val.i) #33
  tail call void @_ZdlPv(ptr noundef nonnull %__dest.val.i) #35
  br label %sw.epilog

sw.epilog:                                        ; preds = %entry, %delete.notnull.i.i, %sw.bb6.i, %sw.bb4.i, %sw.bb1, %sw.bb
  ret i1 false
}